; Function Attrs: nounwind uwtable
define range(i32 -173, 2) i32 @wolfSSL_use_certificate_chain_file_format(ptr noundef %0, ptr noundef captures(address_is_null) %1, i32 noundef %2) local_unnamed_addr #0 {
  %4 = alloca [1024 x i8], align 16
  %5 = alloca %struct.StaticBuffer, align 8
  %6 = alloca i64, align 8
  %7 = icmp eq ptr %0, null
  br i1 %7, label %25, label %8

8:                                                ; preds = %3
  %9 = load ptr, ptr %0, align 16, !tbaa !96
  %10 = getelementptr inbounds nuw i8, ptr %0, i64 1024
  %11 = load i64, ptr %10, align 8
  call void @llvm.lifetime.start.p0(i64 1024, ptr nonnull %4) #22
  call void @llvm.lifetime.start.p0(i64 16, ptr nonnull %5) #22
  call void @llvm.lifetime.start.p0(i64 8, ptr nonnull %6) #22
  store ptr %4, ptr %5, align 8, !tbaa !214
  %12 = getelementptr inbounds nuw i8, ptr %5, i64 8
  store i32 1024, ptr %12, align 8, !tbaa !216
  %13 = getelementptr inbounds nuw i8, ptr %5, i64 12
  store i32 0, ptr %13, align 4, !tbaa !217
  %14 = call fastcc i32 @wolfssl_read_file_static(ptr noundef %1, ptr noundef %5, ptr noundef %6)
  %15 = icmp eq i32 %14, 0
  br i1 %15, label %16, label %.ProcessChainBuffer.exit_crit_edge.i

.ProcessChainBuffer.exit_crit_edge.i:             ; preds = %8
  %.val.pre.i = load ptr, ptr %5, align 8
  br label %ProcessChainBuffer.exit.i

16:                                               ; preds = %8
  %17 = and i64 %11, 128
  %.not = icmp eq i64 %17, 0
  %18 = zext i1 %.not to i32
  %19 = load ptr, ptr %5, align 8, !tbaa !214
  %20 = load i64, ptr %6, align 8, !tbaa !27
  %21 = call i32 @ProcessBuffer(ptr noundef %9, ptr noundef %19, i64 noundef %20, i32 noundef %2, i32 noundef 0, ptr noundef nonnull %0, ptr noundef null, i32 noundef 1, i32 noundef %18)
  %22 = icmp eq i32 %21, 1
  %23 = zext i1 %22 to i32
  br label %ProcessChainBuffer.exit.i

ProcessChainBuffer.exit.i:                        ; preds = %16, %.ProcessChainBuffer.exit_crit_edge.i
  %.val.i = phi ptr [ %19, %16 ], [ %.val.pre.i, %.ProcessChainBuffer.exit_crit_edge.i ]
  %.2.i = phi i32 [ %23, %16 ], [ 0, %.ProcessChainBuffer.exit_crit_edge.i ]
  %.val43.i = load i32, ptr %13, align 4, !tbaa !217
  %.not.i.i = icmp eq i32 %.val43.i, 0
  %.not4.i.i = icmp eq ptr %.val.i, null
  %or.cond.i44.i = select i1 %.not.i.i, i1 true, i1 %.not4.i.i
  br i1 %or.cond.i44.i, label %ProcessFile.exit, label %24

24:                                               ; preds = %ProcessChainBuffer.exit.i
  call void @wolfSSL_Free(ptr noundef nonnull %.val.i) #22
  br label %ProcessFile.exit

ProcessFile.exit:                                 ; preds = %ProcessChainBuffer.exit.i, %24
  call void @llvm.lifetime.end.p0(i64 8, ptr nonnull %6) #22
  call void @llvm.lifetime.end.p0(i64 16, ptr nonnull %5) #22
  call void @llvm.lifetime.end.p0(i64 1024, ptr nonnull %4) #22
  br label %25

25:                                               ; preds = %3, %ProcessFile.exit
  %.0 = phi i32 [ %.2.i, %ProcessFile.exit ], [ -173, %3 ]
  ret i32 %.0
}